target datalayout = "e-m:e-p270:32:32-p271:32:32-p272:64:64-i64:64-i128:128-f80:128-n8:16:32:64-S128"
target triple = "x86_64-pc-linux-gnu"

%struct.AVComplexInt32 = type { i32, i32 }
%struct.AVTXContext = type { i32, i32, ptr, ptr, ptr, ptr, [4 x ptr], i32, [4 x ptr], ptr, i32, i64, i32, float, double, ptr }

; Function Attrs: alwaysinline nounwind willreturn memory(none) uwtable
define internal i64 @av_clip64_c(i64 noundef %0, i64 noundef %1, i64 noundef %2) #2 {
  %4 = alloca i64, align 8
  %5 = alloca i64, align 8
  %6 = alloca i64, align 8
  %7 = alloca i64, align 8
  store i64 %0, ptr %5, align 8, !tbaa !30
  store i64 %1, ptr %6, align 8, !tbaa !30
  store i64 %2, ptr %7, align 8, !tbaa !30
  %8 = load i64, ptr %5, align 8, !tbaa !30
  %9 = load i64, ptr %6, align 8, !tbaa !30
  %10 = icmp slt i64 %8, %9
  br i1 %10, label %11, label %13

11:                                               ; preds = %3
  %12 = load i64, ptr %6, align 8, !tbaa !30
  store i64 %12, ptr %4, align 8
  br label %21

13:                                               ; preds = %3
  %14 = load i64, ptr %5, align 8, !tbaa !30
  %15 = load i64, ptr %7, align 8, !tbaa !30
  %16 = icmp sgt i64 %14, %15
  br i1 %16, label %17, label %19

17:                                               ; preds = %13
  %18 = load i64, ptr %7, align 8, !tbaa !30
  store i64 %18, ptr %4, align 8
  br label %21

19:                                               ; preds = %13
  %20 = load i64, ptr %5, align 8, !tbaa !30
  store i64 %20, ptr %4, align 8
  br label %21

21:                                               ; preds = %19, %17, %11
  %22 = load i64, ptr %4, align 8
  ret i64 %22
}

; Function Attrs: nounwind uwtable
define i32 @ff_tx_mdct_gen_exp_int32(ptr noundef %0, ptr noundef %1) #4 {
  %3 = alloca i32, align 4
  %4 = alloca ptr, align 8
  %5 = alloca ptr, align 8
  %6 = alloca i32, align 4
  %7 = alloca i32, align 4
  %8 = alloca double, align 8
  %9 = alloca double, align 8
  %10 = alloca i64, align 8
  %11 = alloca i32, align 4
  %12 = alloca i32, align 4
  %13 = alloca double, align 8
  %14 = alloca %struct.AVComplexInt32, align 4
  %15 = alloca i32, align 4
  store ptr %0, ptr %4, align 8, !tbaa !17
  store ptr %1, ptr %5, align 8, !tbaa !19
  call void @llvm.lifetime.start.p0(i64 4, ptr %6) #10
  store i32 0, ptr %6, align 4, !tbaa !4
  call void @llvm.lifetime.start.p0(i64 4, ptr %7) #10
  %16 = load ptr, ptr %4, align 8, !tbaa !17
  %17 = getelementptr inbounds nuw %struct.AVTXContext, ptr %16, i32 0, i32 0
  %18 = load i32, ptr %17, align 8, !tbaa !21
  %19 = ashr i32 %18, 1
  store i32 %19, ptr %7, align 4, !tbaa !4
  call void @llvm.lifetime.start.p0(i64 8, ptr %8) #10
  %20 = load ptr, ptr %4, align 8, !tbaa !17
  %21 = getelementptr inbounds nuw %struct.AVTXContext, ptr %20, i32 0, i32 14
  %22 = load double, ptr %21, align 8, !tbaa !28
  store double %22, ptr %8, align 8, !tbaa !29
  call void @llvm.lifetime.start.p0(i64 8, ptr %9) #10
  %23 = load double, ptr %8, align 8, !tbaa !29
  %24 = fcmp nsz olt double %23, 0.000000e+00
  br i1 %24, label %25, label %27

25:                                               ; preds = %2
  %26 = load i32, ptr %7, align 4, !tbaa !4
  br label %28

27:                                               ; preds = %2
  br label %28

28:                                               ; preds = %27, %25
  %29 = phi i32 [ %26, %25 ], [ 0, %27 ]
  %30 = sitofp i32 %29 to double
  %31 = fadd nsz double %30, 1.250000e-01
  store double %31, ptr %9, align 8, !tbaa !29
  call void @llvm.lifetime.start.p0(i64 8, ptr %10) #10
  %32 = load ptr, ptr %5, align 8, !tbaa !19
  %33 = icmp ne ptr %32, null
  br i1 %33, label %34, label %37

34:                                               ; preds = %28
  %35 = load i32, ptr %7, align 4, !tbaa !4
  %36 = mul nsw i32 2, %35
  br label %39

37:                                               ; preds = %28
  %38 = load i32, ptr %7, align 4, !tbaa !4
  br label %39

39:                                               ; preds = %37, %34
  %40 = phi i32 [ %36, %34 ], [ %38, %37 ]
  %41 = sext i32 %40 to i64
  store i64 %41, ptr %10, align 8, !tbaa !30
  %42 = load i64, ptr %10, align 8, !tbaa !30
  %43 = call ptr @av_malloc_array(i64 noundef %42, i64 noundef 8)
  %44 = load ptr, ptr %4, align 8, !tbaa !17
  %45 = getelementptr inbounds nuw %struct.AVTXContext, ptr %44, i32 0, i32 3
  store ptr %43, ptr %45, align 8, !tbaa !31
  %46 = icmp ne ptr %43, null
  br i1 %46, label %48, label %47

47:                                               ; preds = %39
  store i32 -12, ptr %3, align 4
  store i32 1, ptr %11, align 4
  br label %135

48:                                               ; preds = %39
  %49 = load double, ptr %8, align 8, !tbaa !29
  %50 = call nsz double @llvm.fabs.f64(double %49)
  %51 = call nsz double @llvm.sqrt.f64(double %50)
  store double %51, ptr %8, align 8, !tbaa !29
  %52 = load ptr, ptr %5, align 8, !tbaa !19
  %53 = icmp ne ptr %52, null
  br i1 %53, label %54, label %56

54:                                               ; preds = %48
  %55 = load i32, ptr %7, align 4, !tbaa !4
  store i32 %55, ptr %6, align 4, !tbaa !4
  br label %56

56:                                               ; preds = %54, %48
  call void @llvm.lifetime.start.p0(i64 4, ptr %12) #10
  store i32 0, ptr %12, align 4, !tbaa !4
  br label %57

57:                                               ; preds = %99, %56
  %58 = load i32, ptr %12, align 4, !tbaa !4
  %59 = load i32, ptr %7, align 4, !tbaa !4
  %60 = icmp slt i32 %58, %59
  br i1 %60, label %62, label %61

61:                                               ; preds = %57
  store i32 2, ptr %11, align 4
  call void @llvm.lifetime.end.p0(i64 4, ptr %12) #10
  br label %102

62:                                               ; preds = %57
  call void @llvm.lifetime.start.p0(i64 8, ptr %13) #10
  %63 = load i32, ptr %12, align 4, !tbaa !4
  %64 = sitofp i32 %63 to double
  %65 = load double, ptr %9, align 8, !tbaa !29
  %66 = fadd nsz double %64, %65
  %67 = fmul nsz double 0x3FF921FB54442D18, %66
  %68 = load i32, ptr %7, align 4, !tbaa !4
  %69 = sitofp i32 %68 to double
  %70 = fdiv nsz double %67, %69
  store double %70, ptr %13, align 8, !tbaa !29
  %71 = load ptr, ptr %4, align 8, !tbaa !17
  %72 = getelementptr inbounds nuw %struct.AVTXContext, ptr %71, i32 0, i32 3
  %73 = load ptr, ptr %72, align 8, !tbaa !31
  %74 = load i32, ptr %6, align 4, !tbaa !4
  %75 = load i32, ptr %12, align 4, !tbaa !4
  %76 = add nsw i32 %74, %75
  %77 = sext i32 %76 to i64
  %78 = getelementptr inbounds %struct.AVComplexInt32, ptr %73, i64 %77
  %79 = getelementptr inbounds nuw %struct.AVComplexInt32, ptr %14, i32 0, i32 0
  %80 = load double, ptr %13, align 8, !tbaa !29
  %81 = call nsz double @llvm.cos.f64(double %80)
  %82 = load double, ptr %8, align 8, !tbaa !29
  %83 = fmul nsz double %81, %82
  %84 = fmul nsz double %83, 0x41E0000000000000
  %85 = fptrunc nsz double %84 to float
  %86 = call i64 @llvm.llrint.i64.f32(float %85)
  %87 = call i64 @av_clip64_c(i64 noundef %86, i64 noundef -2147483648, i64 noundef 2147483647) #11
  %88 = trunc i64 %87 to i32
  store i32 %88, ptr %79, align 4, !tbaa !32
  %89 = getelementptr inbounds nuw %struct.AVComplexInt32, ptr %14, i32 0, i32 1
  %90 = load double, ptr %13, align 8, !tbaa !29
  %91 = call nsz double @llvm.sin.f64(double %90)
  %92 = load double, ptr %8, align 8, !tbaa !29
  %93 = fmul nsz double %91, %92
  %94 = fmul nsz double %93, 0x41E0000000000000
  %95 = fptrunc nsz double %94 to float
  %96 = call i64 @llvm.llrint.i64.f32(float %95)
  %97 = call i64 @av_clip64_c(i64 noundef %96, i64 noundef -2147483648, i64 noundef 2147483647) #11
  %98 = trunc i64 %97 to i32
  store i32 %98, ptr %89, align 4, !tbaa !34
  call void @llvm.memcpy.p0.p0.i64(ptr align 4 %78, ptr align 4 %14, i64 8, i1 false), !tbaa.struct !35
  call void @llvm.lifetime.end.p0(i64 8, ptr %13) #10
  br label %99

99:                                               ; preds = %62
  %100 = load i32, ptr %12, align 4, !tbaa !4
  %101 = add nsw i32 %100, 1
  store i32 %101, ptr %12, align 4, !tbaa !4
  br label %57, !llvm.loop !36

102:                                              ; preds = %61
  %103 = load ptr, ptr %5, align 8, !tbaa !19
  %104 = icmp ne ptr %103, null
  br i1 %104, label %105, label %134

105:                                              ; preds = %102
  call void @llvm.lifetime.start.p0(i64 4, ptr %15) #10
  store i32 0, ptr %15, align 4, !tbaa !4
  br label %106

106:                                              ; preds = %130, %105
  %107 = load i32, ptr %15, align 4, !tbaa !4
  %108 = load i32, ptr %7, align 4, !tbaa !4
  %109 = icmp slt i32 %107, %108
  br i1 %109, label %111, label %110

110:                                              ; preds = %106
  store i32 5, ptr %11, align 4
  call void @llvm.lifetime.end.p0(i64 4, ptr %15) #10
  br label %133

111:                                              ; preds = %106
  %112 = load ptr, ptr %4, align 8, !tbaa !17
  %113 = getelementptr inbounds nuw %struct.AVTXContext, ptr %112, i32 0, i32 3
  %114 = load ptr, ptr %113, align 8, !tbaa !31
  %115 = load i32, ptr %15, align 4, !tbaa !4
  %116 = sext i32 %115 to i64
  %117 = getelementptr inbounds %struct.AVComplexInt32, ptr %114, i64 %116
  %118 = load ptr, ptr %4, align 8, !tbaa !17
  %119 = getelementptr inbounds nuw %struct.AVTXContext, ptr %118, i32 0, i32 3
  %120 = load ptr, ptr %119, align 8, !tbaa !31
  %121 = load i32, ptr %7, align 4, !tbaa !4
  %122 = load ptr, ptr %5, align 8, !tbaa !19
  %123 = load i32, ptr %15, align 4, !tbaa !4
  %124 = sext i32 %123 to i64
  %125 = getelementptr inbounds i32, ptr %122, i64 %124
  %126 = load i32, ptr %125, align 4, !tbaa !4
  %127 = add nsw i32 %121, %126
  %128 = sext i32 %127 to i64
  %129 = getelementptr inbounds %struct.AVComplexInt32, ptr %120, i64 %128
  call void @llvm.memcpy.p0.p0.i64(ptr align 4 %117, ptr align 4 %129, i64 8, i1 false), !tbaa.struct !35
  br label %130

130:                                              ; preds = %111
  %131 = load i32, ptr %15, align 4, !tbaa !4
  %132 = add nsw i32 %131, 1
  store i32 %132, ptr %15, align 4, !tbaa !4
  br label %106, !llvm.loop !37

133:                                              ; preds = %110
  br label %134

134:                                              ; preds = %133, %102
  store i32 0, ptr %3, align 4
  store i32 1, ptr %11, align 4
  br label %135

135:                                              ; preds = %134, %47
  call void @llvm.lifetime.end.p0(i64 8, ptr %10) #10
  call void @llvm.lifetime.end.p0(i64 8, ptr %9) #10
  call void @llvm.lifetime.end.p0(i64 8, ptr %8) #10
  call void @llvm.lifetime.end.p0(i64 4, ptr %7) #10
  call void @llvm.lifetime.end.p0(i64 4, ptr %6) #10
  %136 = load i32, ptr %3, align 4
  ret i32 %136
}